; Function Attrs: mustprogress uwtable
define hidden void @_ZN4cvc58internal10LetBinding7processENS0_12NodeTemplateILb1EEE(ptr noundef nonnull align 8 dereferenceable(472) %0, ptr noundef readonly captures(none) %1) local_unnamed_addr #3 align 2 personality ptr @__gxx_personality_v0 {
  %3 = alloca %"class.cvc5::internal::NodeTemplate", align 8
  %4 = load ptr, ptr %1, align 8, !tbaa !63
  %5 = load atomic i8, ptr @_ZGVZN4cvc58internal4expr9NodeValue4nullEvE6s_null acquire, align 8
  %6 = icmp eq i8 %5, 0
  br i1 %6, label %7, label %_ZNK4cvc58internal12NodeTemplateILb1EE6isNullEv.exit, !prof !70

7:                                                ; preds = %2
  %8 = tail call i32 @__cxa_guard_acquire(ptr nonnull @_ZGVZN4cvc58internal4expr9NodeValue4nullEvE6s_null) #23
  %.not.i.i = icmp eq i32 %8, 0
  br i1 %.not.i.i, label %_ZNK4cvc58internal12NodeTemplateILb1EE6isNullEv.exit, label %9

9:                                                ; preds = %7
  %10 = invoke noalias noundef nonnull dereferenceable(24) ptr @_Znwm(i64 noundef 24) #26
          to label %11 unwind label %13

11:                                               ; preds = %9
  store i64 1152920405095219200, ptr %10, align 8
  %12 = getelementptr inbounds nuw i8, ptr %10, i64 8
  tail call void @llvm.memset.p0.i64(ptr noundef nonnull align 8 dereferenceable(16) %12, i8 0, i64 16, i1 false)
  store ptr %10, ptr @_ZZN4cvc58internal4expr9NodeValue4nullEvE6s_null, align 8, !tbaa !71
  tail call void @__cxa_guard_release(ptr nonnull @_ZGVZN4cvc58internal4expr9NodeValue4nullEvE6s_null) #23
  br label %_ZNK4cvc58internal12NodeTemplateILb1EE6isNullEv.exit

common.resume:                                    ; preds = %50, %13
  %common.resume.op = phi { ptr, i32 } [ %14, %13 ], [ %51, %50 ]
  resume { ptr, i32 } %common.resume.op

13:                                               ; preds = %9
  %14 = landingpad { ptr, i32 }
          cleanup
  tail call void @__cxa_guard_abort(ptr nonnull @_ZGVZN4cvc58internal4expr9NodeValue4nullEvE6s_null) #23
  br label %common.resume

_ZNK4cvc58internal12NodeTemplateILb1EE6isNullEv.exit: ; preds = %2, %7, %11
  %15 = load ptr, ptr @_ZZN4cvc58internal4expr9NodeValue4nullEvE6s_null, align 8, !tbaa !71
  %16 = icmp eq ptr %4, %15
  %17 = getelementptr inbounds nuw i8, ptr %0, i64 32
  %18 = load i32, ptr %17, align 8
  %19 = icmp eq i32 %18, 0
  %or.cond = select i1 %16, i1 true, i1 %19
  br i1 %or.cond, label %_ZN4cvc58internal12NodeTemplateILb1EED2Ev.exit, label %20

20:                                               ; preds = %_ZNK4cvc58internal12NodeTemplateILb1EE6isNullEv.exit
  %21 = load ptr, ptr %1, align 8, !tbaa !63
  store ptr %21, ptr %3, align 8, !tbaa !63
  %22 = load i64, ptr %21, align 8
  %23 = lshr i64 %22, 40
  %24 = trunc nuw nsw i64 %23 to i32
  %25 = and i32 %24, 1048575
  %26 = icmp samesign ult i32 %25, 1048574
  br i1 %26, label %27, label %32, !prof !72

27:                                               ; preds = %20
  %28 = add i64 %22, 1099511627776
  %29 = and i64 %28, 1152920405095219200
  %30 = and i64 %22, -1152920405095219201
  %31 = or disjoint i64 %29, %30
  store i64 %31, ptr %21, align 8
  br label %_ZN4cvc58internal12NodeTemplateILb1EEC2ERKS2_.exit

32:                                               ; preds = %20
  %33 = icmp eq i32 %25, 1048574
  br i1 %33, label %34, label %_ZN4cvc58internal12NodeTemplateILb1EEC2ERKS2_.exit, !prof !66

34:                                               ; preds = %32
  %35 = or i64 %22, 1152920405095219200
  store i64 %35, ptr %21, align 8
  tail call void @_ZN4cvc58internal4expr9NodeValue20markRefCountMaxedOutEv(ptr noundef nonnull align 8 dereferenceable(24) %21)
  br label %_ZN4cvc58internal12NodeTemplateILb1EEC2ERKS2_.exit

_ZN4cvc58internal12NodeTemplateILb1EEC2ERKS2_.exit: ; preds = %27, %32, %34
  invoke void @_ZN4cvc58internal10LetBinding12updateCountsENS0_12NodeTemplateILb1EEE(ptr noundef nonnull align 8 dereferenceable(472) %0, ptr noundef nonnull %3)
          to label %36 unwind label %50

36:                                               ; preds = %_ZN4cvc58internal12NodeTemplateILb1EEC2ERKS2_.exit
  %37 = load ptr, ptr %3, align 8, !tbaa !63
  %38 = load i64, ptr %37, align 8
  %39 = and i64 %38, 1152920405095219200
  %.not.i.i4 = icmp eq i64 %39, 1152920405095219200
  br i1 %.not.i.i4, label %_ZN4cvc58internal12NodeTemplateILb1EED2Ev.exit, label %40, !prof !66

40:                                               ; preds = %36
  %41 = add i64 %38, 1152920405095219200
  %42 = and i64 %41, 1152920405095219200
  %43 = and i64 %38, -1152920405095219201
  %44 = or disjoint i64 %42, %43
  store i64 %44, ptr %37, align 8
  %45 = icmp eq i64 %42, 0
  br i1 %45, label %46, label %_ZN4cvc58internal12NodeTemplateILb1EED2Ev.exit, !prof !66

46:                                               ; preds = %40
  invoke void @_ZN4cvc58internal4expr9NodeValue15markForDeletionEv(ptr noundef nonnull align 8 dereferenceable(24) %37)
          to label %_ZN4cvc58internal12NodeTemplateILb1EED2Ev.exit unwind label %47

47:                                               ; preds = %46
  %48 = landingpad { ptr, i32 }
          catch ptr null
  %49 = extractvalue { ptr, i32 } %48, 0
  call void @__clang_call_terminate(ptr %49) #25
  unreachable

_ZN4cvc58internal12NodeTemplateILb1EED2Ev.exit:   ; preds = %46, %40, %36, %_ZNK4cvc58internal12NodeTemplateILb1EE6isNullEv.exit
  ret void

50:                                               ; preds = %_ZN4cvc58internal12NodeTemplateILb1EEC2ERKS2_.exit
  %51 = landingpad { ptr, i32 }
          cleanup
  call void @_ZN4cvc58internal12NodeTemplateILb1EED2Ev(ptr noundef nonnull align 8 dereferenceable(8) %3) #23
  br label %common.resume
}